; Function Attrs: mustprogress uwtable
define void @_ZN24InterfaceSortFilterModel20toggleTypeVisibilityEi(ptr noundef nonnull align 8 dereferenceable(72) %0, i32 noundef %1) local_unnamed_addr #0 align 2 personality ptr @__gxx_personality_v0 {
  %3 = getelementptr inbounds i8, ptr %0, i64 40
  %4 = load i64, ptr %3, align 8
  %5 = icmp sgt i64 %4, 0
  br i1 %5, label %6, label %.thread.i

6:                                                ; preds = %2
  %7 = getelementptr inbounds i8, ptr %0, i64 32
  %8 = load ptr, ptr %7, align 8
  %9 = getelementptr i8, ptr %8, i64 -4
  %10 = getelementptr i32, ptr %8, i64 %4
  br label %11

11:                                               ; preds = %13, %6
  %.sroa.015.0.i.i.i.i = phi ptr [ %9, %6 ], [ %12, %13 ]
  %12 = getelementptr i8, ptr %.sroa.015.0.i.i.i.i, i64 4
  %.not.i.i.i.i = icmp eq ptr %12, %10
  br i1 %.not.i.i.i.i, label %.thread.i, label %13

13:                                               ; preds = %11
  %14 = load i32, ptr %12, align 4
  %15 = icmp eq i32 %14, %1
  br i1 %15, label %_ZNK23QListSpecialMethodsBaseIiE8containsIiEEbRKT_.exit.i, label %11, !llvm.loop !9

_ZNK23QListSpecialMethodsBaseIiE8containsIiEEbRKT_.exit.i: ; preds = %13
  %16 = ptrtoint ptr %12 to i64
  %17 = ptrtoint ptr %8 to i64
  %18 = sub i64 %16, %17
  %.fr.i = freeze i64 %18
  %.not10.i = icmp eq i64 %.fr.i, -4
  br i1 %.not10.i, label %.thread.i, label %22

.thread.i:                                        ; preds = %11, %_ZNK23QListSpecialMethodsBaseIiE8containsIiEEbRKT_.exit.i, %2
  %19 = getelementptr inbounds i8, ptr %0, i64 18
  %20 = load i8, ptr %19, align 2
  %21 = and i8 %20, 1
  %.not6.i = icmp eq i8 %21, 0
  br label %_ZNK24InterfaceSortFilterModel20isInterfaceTypeShownEi.exit

22:                                               ; preds = %_ZNK23QListSpecialMethodsBaseIiE8containsIiEEbRKT_.exit.i
  %23 = getelementptr inbounds i8, ptr %0, i64 18
  %24 = load i8, ptr %23, align 2
  %25 = and i8 %24, 1
  %.not.i = icmp ne i8 %25, 0
  br label %_ZNK24InterfaceSortFilterModel20isInterfaceTypeShownEi.exit

_ZNK24InterfaceSortFilterModel20isInterfaceTypeShownEi.exit: ; preds = %.thread.i, %22
  %26 = phi i1 [ %.not6.i, %.thread.i ], [ %.not.i, %22 ]
  %not. = xor i1 %26, true
  tail call void @_ZN24InterfaceSortFilterModel23setInterfaceTypeVisibleEib(ptr noundef nonnull align 8 dereferenceable(72) %0, i32 noundef %1, i1 noundef zeroext %not.)
  ret void
}